target datalayout = "e-m:e-p270:32:32-p271:32:32-p272:64:64-i64:64-i128:128-f80:128-n8:16:32:64-S128"
target triple = "x86_64-pc-linux-gnu"

%struct._address = type { i32, i32, ptr, ptr }
%struct._packet_info = type { ptr, ptr, i32, i32, %struct.nstime_t, %struct.nstime_t, %struct.nstime_t, i32, ptr, ptr, ptr, ptr, %struct._address, %struct._address, %struct._address, %struct._address, %struct._address, %struct._address, i32, ptr, i32, %struct.anon, i32, i32, i32, i32, ptr, i32, ptr, ptr, i16, i16, i32, i32, i16, i32, i32, ptr, ptr, ptr, i8, i8, i16, i16, i16, i32, i16, i16, ptr, ptr, ptr, ptr, ptr, i32 }
%struct.nstime_t = type { i64, i32 }
%struct.anon = type { i8, [3 x i8] }

@.str.130 = private unnamed_addr constant [24 x i8] c"Bit-swapped H.223 frame\00", align 1

; Function Attrs: nounwind uwtable
define internal void @dissect_h223_bitswapped_common(ptr noundef %0, ptr noundef %1, ptr noundef %2, i32 noundef %3, i32 noundef %4) #0 {
  %6 = alloca ptr, align 8
  %7 = alloca ptr, align 8
  %8 = alloca ptr, align 8
  %9 = alloca i32, align 4
  %10 = alloca i32, align 4
  %11 = alloca ptr, align 8
  %12 = alloca ptr, align 8
  %13 = alloca i32, align 4
  store ptr %0, ptr %6, align 8
  store ptr %1, ptr %7, align 8
  store ptr %2, ptr %8, align 8
  store i32 %3, ptr %9, align 4
  store i32 %4, ptr %10, align 4
  %14 = load ptr, ptr %6, align 8
  %15 = call i32 @tvb_reported_length(ptr noundef %14)
  store i32 %15, ptr %13, align 4
  %16 = load ptr, ptr %7, align 8
  %17 = getelementptr inbounds %struct._packet_info, ptr %16, i32 0, i32 50
  %18 = load ptr, ptr %17, align 8
  %19 = load ptr, ptr %6, align 8
  %20 = load i32, ptr %13, align 4
  %21 = zext i32 %20 to i64
  %22 = call ptr @tvb_memdup(ptr noundef %18, ptr noundef %19, i32 noundef 0, i64 noundef %21)
  store ptr %22, ptr %12, align 8
  %23 = load ptr, ptr %12, align 8
  %24 = load i32, ptr %13, align 4
  %25 = zext i32 %24 to i64
  call void @bitswap_buf_inplace(ptr noundef %23, i64 noundef %25)
  %26 = load ptr, ptr %6, align 8
  %27 = load ptr, ptr %12, align 8
  %28 = load i32, ptr %13, align 4
  %29 = load ptr, ptr %6, align 8
  %30 = call i32 @tvb_reported_length(ptr noundef %29)
  %31 = call ptr @tvb_new_child_real_data(ptr noundef %26, ptr noundef %27, i32 noundef %28, i32 noundef %30)
  store ptr %31, ptr %11, align 8
  %32 = load ptr, ptr %7, align 8
  %33 = load ptr, ptr %11, align 8
  call void @add_new_data_source(ptr noundef %32, ptr noundef %33, ptr noundef @.str.130)
  %34 = load ptr, ptr %11, align 8
  %35 = load ptr, ptr %7, align 8
  %36 = load ptr, ptr %8, align 8
  %37 = load i32, ptr %9, align 4
  %38 = load i32, ptr %10, align 4
  call void @dissect_h223_common(ptr noundef %34, ptr noundef %35, ptr noundef %36, i32 noundef %37, i32 noundef %38)
  ret void
}

; Function Attrs: nounwind uwtable
define internal i32 @dissect_h223_bitswapped(ptr noundef %0, ptr noundef %1, ptr noundef %2, ptr noundef %3) #0 {
  %5 = alloca ptr, align 8
  %6 = alloca ptr, align 8
  %7 = alloca ptr, align 8
  %8 = alloca ptr, align 8
  store ptr %0, ptr %5, align 8
  store ptr %1, ptr %6, align 8
  store ptr %2, ptr %7, align 8
  store ptr %3, ptr %8, align 8
  %9 = load ptr, ptr %5, align 8
  %10 = load ptr, ptr %6, align 8
  %11 = load ptr, ptr %7, align 8
  call void @dissect_h223_bitswapped_common(ptr noundef %9, ptr noundef %10, ptr noundef %11, i32 noundef 0, i32 noundef 0)
  %12 = load ptr, ptr %5, align 8
  %13 = call i32 @tvb_captured_length(ptr noundef %12)
  ret i32 %13
}