; Function Attrs: nounwind uwtable
define internal i32 @dissect_h223_bitswapped(ptr noundef %0, ptr noundef %1, ptr noundef %2, ptr readnone captures(none) %3) #0 {
  %5 = tail call i32 @tvb_reported_length(ptr noundef %0) #12
  %6 = getelementptr inbounds nuw i8, ptr %1, i64 408
  %7 = load ptr, ptr %6, align 8
  %8 = zext i32 %5 to i64
  %9 = tail call ptr @tvb_memdup(ptr noundef %7, ptr noundef %0, i32 noundef 0, i64 noundef %8) #12
  tail call void @bitswap_buf_inplace(ptr noundef %9, i64 noundef %8) #12
  %10 = tail call i32 @tvb_reported_length(ptr noundef %0) #12
  %11 = tail call ptr @tvb_new_child_real_data(ptr noundef %0, ptr noundef %9, i32 noundef %5, i32 noundef %10) #12
  tail call void @add_new_data_source(ptr noundef %1, ptr noundef %11, ptr noundef nonnull @.str.130) #12
  tail call fastcc void @dissect_h223_common(ptr noundef %11, ptr noundef %1, ptr noundef %2, i32 noundef 0, i32 noundef 0)
  %12 = tail call i32 @tvb_captured_length(ptr noundef %0) #12
  ret i32 %12
}